(dp0
S'1'
p1
(lp2
(lp3
VJames
p4
aVBund
p5
a(dp6
I1
(lp7
(iGameObject
GameObject
p8
(dp9
S'img'
p10
NsS'threwtime'
p11
S'2023-01-02 15:22:19'
p12
sS'Rotate'
p13
I0
sS'speedY'
p14
I0
sS'speedX'
p15
I1
sS'position0'
p16
(lp17
I750
aI930
asS'shotdownTime'
p18
S'2023-01-02 15:22:28'
p19
sS'ydir'
p20
I1
sS'xdir'
p21
I-1
sS'speed'
p22
I0
sS'frameCount'
p23
I508
sS'id'
p24
I10
sS'position'
p25
(lp26
I20
aI930
asS'player'
p27
I2
sbasI2
(lp28
(iGameObject
GameObject
p29
(dp30
S'img'
p31
NsS'threwtime'
p32
S'2023-01-02 15:22:38'
p33
sS'Rotate'
p34
I0
sS'speedY'
p35
I0
sS'speedX'
p36
I1
sS'position0'
p37
(lp38
I250
aI930
asS'shotdownTime'
p39
S'2023-01-02 15:22:46'
p40
sS'ydir'
p41
I1
sS'xdir'
p42
I1
sS'speed'
p43
I0
sS'frameCount'
p44
I511
sS'id'
p45
I4
sS'position'
p46
(lp47
I980
aI930
asS'player'
p48
I1
sbasaa(lp49
VCarol
p50
aVFrank
p51
a(dp52
I1
(lp53
(iGameObject
GameObject
p54
(dp55
S'img'
p56
NsS'threwtime'
p57
S'2023-01-02 15:25:26'
p58
sS'Rotate'
p59
I0
sS'speedY'
p60
I0
sS'speedX'
p61
I1
sS'position0'
p62
(lp63
I750
aI930
asS'shotdownTime'
p64
S'2023-01-02 15:25:34'
p65
sS'ydir'
p66
I1
sS'xdir'
p67
I-1
sS'speed'
p68
I0
sS'frameCount'
p69
I508
sS'id'
p70
I8
sS'position'
p71
(lp72
I20
aI930
asS'player'
p73
I2
sba(iGameObject
GameObject
p74
(dp75
S'img'
p76
NsS'threwtime'
p77
S'2023-01-02 15:25:34'
p78
sS'Rotate'
p79
I0
sS'speedY'
p80
I0
sS'speedX'
p81
I1
sS'position0'
p82
(lp83
I250
aI930
asS'shotdownTime'
p84
S'2023-01-02 15:25:36'
p85
sS'ydir'
p86
I1
sS'xdir'
p87
I1
sS'speed'
p88
I0
sS'frameCount'
p89
I87
sS'id'
p90
I2
sS'position'
p91
(lp92
I60
aI930
asS'player'
p93
I1
sbasI2
(lp94
(iGameObject
GameObject
p95
(dp96
S'img'
p97
NsS'threwtime'
p98
S'2023-01-02 15:25:09'
p99
sS'Rotate'
p100
I0
sS'speedY'
p101
I0
sS'speedX'
p102
I1
sS'position0'
p103
(lp104
I250
aI930
asS'shotdownTime'
p105
S'2023-01-02 15:25:18'
p106
sS'ydir'
p107
I1
sS'xdir'
p108
I1
sS'speed'
p109
I0
sS'frameCount'
p110
I525
sS'id'
p111
I5
sS'position'
p112
(lp113
I980
aI930
asS'player'
p114
I1
sba(iGameObject
GameObject
p115
(dp116
S'img'
p117
NsS'threwtime'
p118
S'2023-01-02 15:25:18'
p119
sS'Rotate'
p120
I0
sS'speedY'
p121
I0
sS'speedX'
p122
I1
sS'position0'
p123
(lp124
I750
aI930
asS'shotdownTime'
p125
S'2023-01-02 15:25:19'
p126
sS'ydir'
p127
I1
sS'xdir'
p128
I-1
sS'speed'
p129
I0
sS'frameCount'
p130
I84
sS'id'
p131
I10
sS'position'
p132
(lp133
I940
aI930
asS'player'
p134
I2
sba(iGameObject
GameObject
p135
(dp136
S'img'
p137
NsS'threwtime'
p138
S'2023-01-02 15:25:19'
p139
sS'Rotate'
p140
I0
sS'speedY'
p141
I0
sS'speedX'
p142
I1
sS'position0'
p143
(lp144
I250
aI930
asS'shotdownTime'
p145
S'2023-01-02 15:25:22'
p146
sS'ydir'
p147
I1
sS'xdir'
p148
I1
sS'speed'
p149
I0
sS'frameCount'
p150
I152
sS'id'
p151
I4
sS'position'
p152
(lp153
I900
aI930
asS'player'
p154
I1
sba(iGameObject
GameObject
p155
(dp156
S'img'
p157
NsS'threwtime'
p158
S'2023-01-02 15:25:22'
p159
sS'Rotate'
p160
I0
sS'speedY'
p161
I0
sS'speedX'
p162
I1
sS'position0'
p163
(lp164
I750
aI930
asS'shotdownTime'
p165
S'2023-01-02 15:25:23'
p166
sS'ydir'
p167
I1
sS'xdir'
p168
I-1
sS'speed'
p169
I0
sS'frameCount'
p170
I77
sS'id'
p171
I9
sS'position'
p172
(lp173
I860
aI930
asS'player'
p174
I2
sba(iGameObject
GameObject
p175
(dp176
S'img'
p177
NsS'threwtime'
p178
S'2023-01-02 15:25:23'
p179
sS'Rotate'
p180
I0
sS'speedY'
p181
I0
sS'speedX'
p182
I1
sS'position0'
p183
(lp184
I250
aI930
asS'shotdownTime'
p185
S'2023-01-02 15:25:26'
p186
sS'ydir'
p187
I1
sS'xdir'
p188
I1
sS'speed'
p189
I0
sS'frameCount'
p190
I161
sS'id'
p191
I3
sS'position'
p192
(lp193
I820
aI930
asS'player'
p194
I1
sbasaa(lp195
VMark
p196
aVMatthew
p197
a(dp198
I1
(lp199
(igameObject
GameObject
p200
(dp201
S'img'
p202
NsS'threwtime'
p203
S'2023-01-02 15:28:28'
p204
sS'Rotate'
p205
I0
sS'speedY'
p206
I0
sS'speedX'
p207
I1
sS'position0'
p208
(lp209
I750
aI930
asS'shotdownTime'
p210
S'2023-01-02 15:28:36'
p211
sS'ydir'
p212
I1
sS'xdir'
p213
I-1
sS'speed'
p214
I0
sS'frameCount'
p215
I514
sS'id'
p216
I9
sS'position'
p217
(lp218
I20
aI930
asS'player'
p219
I2
sba(igameObject
GameObject
p220
(dp221
S'img'
p222
NsS'threwtime'
p223
S'2023-01-02 15:28:36'
p224
sS'Rotate'
p225
I0
sS'speedY'
p226
I0
sS'speedX'
p227
I1
sS'position0'
p228
(lp229
I250
aI930
asS'shotdownTime'
p230
S'2023-01-02 15:28:37'
p231
sS'ydir'
p232
I1
sS'xdir'
p233
I1
sS'speed'
p234
I0
sS'frameCount'
p235
I70
sS'id'
p236
I4
sS'position'
p237
(lp238
I60
aI930
asS'player'
p239
I1
sba(igameObject
GameObject
p240
(dp241
S'img'
p242
NsS'threwtime'
p243
S'2023-01-02 15:28:37'
p244
sS'Rotate'
p245
I0
sS'speedY'
p246
I0
sS'speedX'
p247
I1
sS'position0'
p248
(lp249
I250
aI930
asS'shotdownTime'
p250
S'2023-01-02 15:28:39'
p251
sS'ydir'
p252
I1
sS'xdir'
p253
I1
sS'speed'
p254
I0
sS'frameCount'
p255
I72
sS'id'
p256
I3
sS'position'
p257
(lp258
I100
aI930
asS'player'
p259
I1
sba(igameObject
GameObject
p260
(dp261
S'img'
p262
NsS'threwtime'
p263
S'2023-01-02 15:28:39'
p264
sS'Rotate'
p265
I0
sS'speedY'
p266
I0
sS'speedX'
p267
I1
sS'position0'
p268
(lp269
I750
aI930
asS'shotdownTime'
p270
S'2023-01-02 15:28:47'
p271
sS'ydir'
p272
I1
sS'xdir'
p273
I-1
sS'speed'
p274
I0
sS'frameCount'
p275
I525
sS'id'
p276
I8
sS'position'
p277
(lp278
I140
aI930
asS'player'
p279
I2
sbasI2
(lp280
(igameObject
GameObject
p281
(dp282
S'img'
p283
NsS'threwtime'
p284
S'2023-01-02 15:28:26'
p285
sS'Rotate'
p286
I0
sS'speedY'
p287
I0
sS'speedX'
p288
I1
sS'position0'
p289
(lp290
I750
aI930
asS'shotdownTime'
p291
S'2023-01-02 15:28:28'
p292
sS'ydir'
p293
I1
sS'xdir'
p294
I-1
sS'speed'
p295
I0
sS'frameCount'
p296
I74
sS'id'
p297
I10
sS'position'
p298
(lp299
I980
aI930
asS'player'
p300
I2
sbasaa(lp301
VCarl
p302
aVMath
p303
a(dp304
I1
(lp305
(igameObject
GameObject
p306
(dp307
S'img'
p308
NsS'threwtime'
p309
S'2023-01-02 15:55:49'
p310
sS'Rotate'
p311
I0
sS'speedY'
p312
I0
sS'speedX'
p313
I1
sS'position0'
p314
(lp315
I750
aI930
asS'shotdownTime'
p316
S'2023-01-02 15:55:58'
p317
sS'ydir'
p318
I1
sS'xdir'
p319
I-1
sS'speed'
p320
I0
sS'frameCount'
p321
I532
sS'id'
p322
I10
sS'position'
p323
(lp324
I20
aI930
asS'player'
p325
I2
sba(igameObject
GameObject
p326
(dp327
S'img'
p328
NsS'threwtime'
p329
S'2023-01-02 15:56:07'
p330
sS'Rotate'
p331
I0
sS'speedY'
p332
I0
sS'speedX'
p333
I1
sS'position0'
p334
(lp335
I750
aI930
asS'shotdownTime'
p336
S'2023-01-02 15:56:15'
p337
sS'ydir'
p338
I1
sS'xdir'
p339
I-1
sS'speed'
p340
I0
sS'frameCount'
p341
I507
sS'id'
p342
I9
sS'position'
p343
(lp344
I60
aI930
asS'player'
p345
I2
sba(igameObject
GameObject
p346
(dp347
S'img'
p348
NsS'threwtime'
p349
S'2023-01-02 15:56:15'
p350
sS'Rotate'
p351
I0
sS'speedY'
p352
I0
sS'speedX'
p353
I1
sS'position0'
p354
(lp355
I250
aI930
asS'shotdownTime'
p356
S'2023-01-02 15:56:17'
p357
sS'ydir'
p358
I1
sS'xdir'
p359
I1
sS'speed'
p360
I0
sS'frameCount'
p361
I80
sS'id'
p362
I3
sS'position'
p363
(lp364
I100
aI930
asS'player'
p365
I1
sbasI2
(lp366
(igameObject
GameObject
p367
(dp368
S'img'
p369
NsS'threwtime'
p370
S'2023-01-02 15:55:58'
p371
sS'Rotate'
p372
I0
sS'speedY'
p373
I0
sS'speedX'
p374
I1
sS'position0'
p375
(lp376
I250
aI930
asS'shotdownTime'
p377
S'2023-01-02 15:56:07'
p378
sS'ydir'
p379
I1
sS'xdir'
p380
I1
sS'speed'
p381
I0
sS'frameCount'
p382
I526
sS'id'
p383
I4
sS'position'
p384
(lp385
I980
aI930
asS'player'
p386
I1
sbasaa(lp387
Vjijhi
p388
aS'Computer'
p389
a(dp390
I1
(lp391
(igameObject
GameObject
p392
(dp393
S'img'
p394
NsS'threwtime'
p395
S'2023-01-15 12:37:12'
p396
sS'Rotate'
p397
I0
sS'speedY'
p398
I0
sS'speedX'
p399
I1
sS'position0'
p400
(lp401
I250
aI930
asS'shotdownTime'
p402
S'2023-01-15 12:37:14'
p403
sS'ydir'
p404
I1
sS'xdir'
p405
I1
sS'speed'
p406
I0
sS'frameCount'
p407
I85
sS'id'
p408
I4
sS'position'
p409
(lp410
I20
aI700
asS'player'
p411
I1
sba(igameObject
GameObject
p412
(dp413
S'img'
p414
NsS'threwtime'
p415
S'2023-01-15 12:37:15'
p416
sS'Rotate'
p417
I0
sS'speedY'
p418
I0
sS'speedX'
p419
I1
sS'position0'
p420
(lp421
I250
aI930
asS'shotdownTime'
p422
S'2023-01-15 12:37:16'
p423
sS'ydir'
p424
I1
sS'xdir'
p425
I1
sS'speed'
p426
I0
sS'frameCount'
p427
I76
sS'id'
p428
I3
sS'position'
p429
(lp430
I60
aI700
asS'player'
p431
I1
sba(igameObject
GameObject
p432
(dp433
S'img'
p434
NsS'threwtime'
p435
S'2023-01-15 12:37:18'
p436
sS'Rotate'
p437
I0
sS'speedY'
p438
I0
sS'speedX'
p439
I1
sS'position0'
p440
(lp441
I250
aI930
asS'shotdownTime'
p442
S'2023-01-15 12:37:19'
p443
sS'ydir'
p444
I1
sS'xdir'
p445
I1
sS'speed'
p446
I0
sS'frameCount'
p447
I73
sS'id'
p448
I2
sS'position'
p449
(lp450
I100
aI700
asS'player'
p451
I1
sba(igameObject
GameObject
p452
(dp453
S'img'
p454
NsS'threwtime'
p455
S'2023-01-15 12:37:19'
p456
sS'Rotate'
p457
I0
sS'speedY'
p458
I0
sS'speedX'
p459
I1
sS'position0'
p460
(lp461
I250
aI930
asS'shotdownTime'
p462
S'2023-01-15 12:37:21'
p463
sS'ydir'
p464
I1
sS'xdir'
p465
I1
sS'speed'
p466
I0
sS'frameCount'
p467
I83
sS'id'
p468
I1
sS'position'
p469
(lp470
I140
aI700
asS'player'
p471
I1
sbasI2
(lp472
(igameObject
GameObject
p473
(dp474
S'img'
p475
NsS'threwtime'
p476
S'2023-01-15 12:37:07'
p477
sS'Rotate'
p478
I0
sS'speedY'
p479
I0
sS'speedX'
p480
I1
sS'position0'
p481
(lp482
I750
aI930
asS'shotdownTime'
p483
S'2023-01-15 12:37:08'
p484
sS'ydir'
p485
I1
sS'xdir'
p486
I-1
sS'speed'
p487
I0
sS'frameCount'
p488
I76
sS'id'
p489
I10
sS'position'
p490
(lp491
I980
aI700
asS'player'
p492
I2
sba(igameObject
GameObject
p493
(dp494
S'img'
p495
NsS'threwtime'
p496
S'2023-01-15 12:37:08'
p497
sS'Rotate'
p498
I0
sS'speedY'
p499
I0
sS'speedX'
p500
I1
sS'position0'
p501
(lp502
I250
aI930
asS'shotdownTime'
p503
S'2023-01-15 12:37:11'
p504
sS'ydir'
p505
I1
sS'xdir'
p506
I1
sS'speed'
p507
I0
sS'frameCount'
p508
I162
sS'id'
p509
I5
sS'position'
p510
(lp511
I940
aI700
asS'player'
p512
I1
sba(igameObject
GameObject
p513
(dp514
S'img'
p515
NsS'threwtime'
p516
S'2023-01-15 12:37:11'
p517
sS'Rotate'
p518
I0
sS'speedY'
p519
I0
sS'speedX'
p520
I1
sS'position0'
p521
(lp522
I750
aI930
asS'shotdownTime'
p523
S'2023-01-15 12:37:12'
p524
sS'ydir'
p525
I1
sS'xdir'
p526
I-1
sS'speed'
p527
I0
sS'frameCount'
p528
I75
sS'id'
p529
I9
sS'position'
p530
(lp531
I900
aI700
asS'player'
p532
I2
sba(igameObject
GameObject
p533
(dp534
S'img'
p535
NsS'threwtime'
p536
S'2023-01-15 12:37:14'
p537
sS'Rotate'
p538
I0
sS'speedY'
p539
I0
sS'speedX'
p540
I1
sS'position0'
p541
(lp542
I750
aI930
asS'shotdownTime'
p543
S'2023-01-15 12:37:15'
p544
sS'ydir'
p545
I1
sS'xdir'
p546
I-1
sS'speed'
p547
I0
sS'frameCount'
p548
I75
sS'id'
p549
I8
sS'position'
p550
(lp551
I860
aI700
asS'player'
p552
I2
sba(igameObject
GameObject
p553
(dp554
S'img'
p555
NsS'threwtime'
p556
S'2023-01-15 12:37:17'
p557
sS'Rotate'
p558
I0
sS'speedY'
p559
I0
sS'speedX'
p560
I1
sS'position0'
p561
(lp562
I750
aI930
asS'shotdownTime'
p563
S'2023-01-15 12:37:18'
p564
sS'ydir'
p565
I1
sS'xdir'
p566
I-1
sS'speed'
p567
I0
sS'frameCount'
p568
I75
sS'id'
p569
I7
sS'position'
p570
(lp571
I820
aI700
asS'player'
p572
I2
sbasaa(lp573
Vhdghg
p574
aS'Computer'
p575
a(dp576
I1
(lp577
sI2
(lp578
(igameObject
GameObject
p579
(dp580
S'img'
p581
NsS'threwtime'
p582
S'2023-01-15 12:37:51'
p583
sS'Rotate'
p584
I0
sS'speedY'
p585
I0
sS'speedX'
p586
I1
sS'position0'
p587
(lp588
I250
aI930
asS'shotdownTime'
p589
S'2023-01-15 12:37:56'
p590
sS'ydir'
p591
I1
sS'xdir'
p592
I1
sS'speed'
p593
I0
sS'frameCount'
p594
I161
sS'id'
p595
I5
sS'position'
p596
(lp597
I980
aI700
asS'player'
p598
I1
sba(igameObject
GameObject
p599
(dp600
S'img'
p601
NsS'threwtime'
p602
S'2023-01-15 12:37:56'
p603
sS'Rotate'
p604
I0
sS'speedY'
p605
I0
sS'speedX'
p606
I1
sS'position0'
p607
(lp608
I750
aI930
asS'shotdownTime'
p609
S'2023-01-15 12:37:58'
p610
sS'ydir'
p611
I1
sS'xdir'
p612
I-1
sS'speed'
p613
I0
sS'frameCount'
p614
I75
sS'id'
p615
I10
sS'position'
p616
(lp617
I940
aI700
asS'player'
p618
I2
sba(igameObject
GameObject
p619
(dp620
S'img'
p621
NsS'threwtime'
p622
S'2023-01-15 12:37:58'
p623
sS'Rotate'
p624
I0
sS'speedY'
p625
I0
sS'speedX'
p626
I1
sS'position0'
p627
(lp628
I250
aI930
asS'shotdownTime'
p629
S'2023-01-15 12:38:03'
p630
sS'ydir'
p631
I1
sS'xdir'
p632
I1
sS'speed'
p633
I0
sS'frameCount'
p634
I161
sS'id'
p635
I4
sS'position'
p636
(lp637
I900
aI700
asS'player'
p638
I1
sba(igameObject
GameObject
p639
(dp640
S'img'
p641
NsS'threwtime'
p642
S'2023-01-15 12:38:03'
p643
sS'Rotate'
p644
I0
sS'speedY'
p645
I0
sS'speedX'
p646
I1
sS'position0'
p647
(lp648
I750
aI930
asS'shotdownTime'
p649
S'2023-01-15 12:38:05'
p650
sS'ydir'
p651
I1
sS'xdir'
p652
I-1
sS'speed'
p653
I0
sS'frameCount'
p654
I75
sS'id'
p655
I9
sS'position'
p656
(lp657
I860
aI700
asS'player'
p658
I2
sba(igameObject
GameObject
p659
(dp660
S'img'
p661
NsS'threwtime'
p662
S'2023-01-15 12:38:05'
p663
sS'Rotate'
p664
I0
sS'speedY'
p665
I0
sS'speedX'
p666
I1
sS'position0'
p667
(lp668
I250
aI930
asS'shotdownTime'
p669
S'2023-01-15 12:38:10'
p670
sS'ydir'
p671
I1
sS'xdir'
p672
I1
sS'speed'
p673
I0
sS'frameCount'
p674
I162
sS'id'
p675
I3
sS'position'
p676
(lp677
I820
aI700
asS'player'
p678
I1
sbasaa(lp679
Vmark
p680
aS'Computer'
p681
a(dp682
I1
(lp683
(igameObject
GameObject
p684
(dp685
S'img'
p686
NsS'threwtime'
p687
S'2023-01-18 12:24:50'
p688
sS'Rotate'
p689
I0
sS'speedY'
p690
I0
sS'speedX'
p691
I1
sS'position0'
p692
(lp693
I750
aI930
asS'shotdownTime'
p694
S'2023-01-18 12:24:59'
p695
sS'ydir'
p696
I1
sS'xdir'
p697
I-1
sS'speed'
p698
I0
sS'frameCount'
p699
I522
sS'id'
p700
I8
sS'position'
p701
(lp702
I20
aI700
asS'player'
p703
I2
sba(igameObject
GameObject
p704
(dp705
S'img'
p706
NsS'threwtime'
p707
S'2023-01-18 12:25:09'
p708
sS'Rotate'
p709
I0
sS'speedY'
p710
I0
sS'speedX'
p711
I1
sS'position0'
p712
(lp713
I750
aI930
asS'shotdownTime'
p714
S'2023-01-18 12:25:18'
p715
sS'ydir'
p716
I1
sS'xdir'
p717
I-1
sS'speed'
p718
I0
sS'frameCount'
p719
I541
sS'id'
p720
I7
sS'position'
p721
(lp722
I60
aI700
asS'player'
p723
I2
sbasI2
(lp724
(igameObject
GameObject
p725
(dp726
S'img'
p727
NsS'threwtime'
p728
S'2023-01-18 12:24:40'
p729
sS'Rotate'
p730
I0
sS'speedY'
p731
I0
sS'speedX'
p732
I1
sS'position0'
p733
(lp734
I750
aI930
asS'shotdownTime'
p735
S'2023-01-18 12:24:41'
p736
sS'ydir'
p737
I1
sS'xdir'
p738
I-1
sS'speed'
p739
I0
sS'frameCount'
p740
I78
sS'id'
p741
I10
sS'position'
p742
(lp743
I980
aI700
asS'player'
p744
I2
sba(igameObject
GameObject
p745
(dp746
S'img'
p747
NsS'threwtime'
p748
S'2023-01-18 12:24:41'
p749
sS'Rotate'
p750
I0
sS'speedY'
p751
I0
sS'speedX'
p752
I1
sS'position0'
p753
(lp754
I250
aI930
asS'shotdownTime'
p755
S'2023-01-18 12:24:44'
p756
sS'ydir'
p757
I1
sS'xdir'
p758
I1
sS'speed'
p759
I0
sS'frameCount'
p760
I161
sS'id'
p761
I5
sS'position'
p762
(lp763
I940
aI700
asS'player'
p764
I1
sba(igameObject
GameObject
p765
(dp766
S'img'
p767
NsS'threwtime'
p768
S'2023-01-18 12:24:44'
p769
sS'Rotate'
p770
I0
sS'speedY'
p771
I0
sS'speedX'
p772
I1
sS'position0'
p773
(lp774
I250
aI930
asS'shotdownTime'
p775
S'2023-01-18 12:24:46'
p776
sS'ydir'
p777
I1
sS'xdir'
p778
I1
sS'speed'
p779
I0
sS'frameCount'
p780
I162
sS'id'
p781
I4
sS'position'
p782
(lp783
I900
aI700
asS'player'
p784
I1
sba(igameObject
GameObject
p785
(dp786
S'img'
p787
NsS'threwtime'
p788
S'2023-01-18 12:24:46'
p789
sS'Rotate'
p790
I0
sS'speedY'
p791
I0
sS'speedX'
p792
I1
sS'position0'
p793
(lp794
I750
aI930
asS'shotdownTime'
p795
S'2023-01-18 12:24:48'
p796
sS'ydir'
p797
I1
sS'xdir'
p798
I-1
sS'speed'
p799
I0
sS'frameCount'
p800
I79
sS'id'
p801
I9
sS'position'
p802
(lp803
I860
aI700
asS'player'
p804
I2
sba(igameObject
GameObject
p805
(dp806
S'img'
p807
NsS'threwtime'
p808
S'2023-01-18 12:24:48'
p809
sS'Rotate'
p810
I0
sS'speedY'
p811
I0
sS'speedX'
p812
I1
sS'position0'
p813
(lp814
I250
aI930
asS'shotdownTime'
p815
S'2023-01-18 12:24:50'
p816
sS'ydir'
p817
I1
sS'xdir'
p818
I1
sS'speed'
p819
I0
sS'frameCount'
p820
I162
sS'id'
p821
I3
sS'position'
p822
(lp823
I820
aI700
asS'player'
p824
I1
sbasaa(lp825
Vmark
p826
aS'Computer'
p827
a(dp828
I1
(lp829
sI2
(lp830
(igameObject
GameObject
p831
(dp832
S'img'
p833
NsS'threwtime'
p834
S'2023-01-18 20:01:21'
p835
sS'Rotate'
p836
I0
sS'speedY'
p837
I0
sS'speedX'
p838
I1
sS'position0'
p839
(lp840
I250
aI930
asS'shotdownTime'
p841
S'2023-01-18 20:01:23'
p842
sS'ydir'
p843
I1
sS'xdir'
p844
I1
sS'speed'
p845
I0
sS'frameCount'
p846
I161
sS'id'
p847
I5
sS'position'
p848
(lp849
I980
aI700
asS'player'
p850
I1
sba(igameObject
GameObject
p851
(dp852
S'img'
p853
NsS'threwtime'
p854
S'2023-01-18 20:01:23'
p855
sS'Rotate'
p856
I0
sS'speedY'
p857
I0
sS'speedX'
p858
I1
sS'position0'
p859
(lp860
I750
aI930
asS'shotdownTime'
p861
S'2023-01-18 20:01:25'
p862
sS'ydir'
p863
I1
sS'xdir'
p864
I-1
sS'speed'
p865
I0
sS'frameCount'
p866
I79
sS'id'
p867
I10
sS'position'
p868
(lp869
I940
aI700
asS'player'
p870
I2
sba(igameObject
GameObject
p871
(dp872
S'img'
p873
NsS'threwtime'
p874
S'2023-01-18 20:01:25'
p875
sS'Rotate'
p876
I0
sS'speedY'
p877
I0
sS'speedX'
p878
I1
sS'position0'
p879
(lp880
I750
aI930
asS'shotdownTime'
p881
S'2023-01-18 20:01:26'
p882
sS'ydir'
p883
I1
sS'xdir'
p884
I-1
sS'speed'
p885
I0
sS'frameCount'
p886
I79
sS'id'
p887
I9
sS'position'
p888
(lp889
I900
aI700
asS'player'
p890
I2
sba(igameObject
GameObject
p891
(dp892
S'img'
p893
NsS'threwtime'
p894
S'2023-01-18 20:01:26'
p895
sS'Rotate'
p896
I0
sS'speedY'
p897
I0
sS'speedX'
p898
I1
sS'position0'
p899
(lp900
I250
aI930
asS'shotdownTime'
p901
S'2023-01-18 20:01:29'
p902
sS'ydir'
p903
I1
sS'xdir'
p904
I1
sS'speed'
p905
I0
sS'frameCount'
p906
I162
sS'id'
p907
I4
sS'position'
p908
(lp909
I860
aI700
asS'player'
p910
I1
sba(igameObject
GameObject
p911
(dp912
S'img'
p913
NsS'threwtime'
p914
S'2023-01-18 20:01:29'
p915
sS'Rotate'
p916
I0
sS'speedY'
p917
I0
sS'speedX'
p918
I1
sS'position0'
p919
(lp920
I750
aI930
asS'shotdownTime'
p921
S'2023-01-18 20:01:30'
p922
sS'ydir'
p923
I1
sS'xdir'
p924
I-1
sS'speed'
p925
I0
sS'frameCount'
p926
I79
sS'id'
p927
I8
sS'position'
p928
(lp929
I820
aI700
asS'player'
p930
I2
sbasaa(lp931
Vjohn
p932
aS'Computer'
p933
a(dp934
I1
(lp935
sI2
(lp936
(igameObject
GameObject
p937
(dp938
S'img'
p939
NsS'threwtime'
p940
S'2023-01-19 10:57:25'
p941
sS'Rotate'
p942
I0
sS'speedY'
p943
I0
sS'speedX'
p944
I1
sS'position0'
p945
(lp946
I250
aI930
asS'shotdownTime'
p947
S'2023-01-19 10:57:28'
p948
sS'ydir'
p949
I1
sS'xdir'
p950
I1
sS'speed'
p951
I0
sS'frameCount'
p952
I162
sS'id'
p953
I5
sS'position'
p954
(lp955
I980
aI700
asS'player'
p956
I1
sba(igameObject
GameObject
p957
(dp958
S'img'
p959
NsS'threwtime'
p960
S'2023-01-19 10:57:28'
p961
sS'Rotate'
p962
I0
sS'speedY'
p963
I0
sS'speedX'
p964
I1
sS'position0'
p965
(lp966
I750
aI930
asS'shotdownTime'
p967
S'2023-01-19 10:57:29'
p968
sS'ydir'
p969
I1
sS'xdir'
p970
I-1
sS'speed'
p971
I0
sS'frameCount'
p972
I79
sS'id'
p973
I10
sS'position'
p974
(lp975
I940
aI700
asS'player'
p976
I2
sba(igameObject
GameObject
p977
(dp978
S'img'
p979
NsS'threwtime'
p980
S'2023-01-19 10:57:29'
p981
sS'Rotate'
p982
I0
sS'speedY'
p983
I0
sS'speedX'
p984
I1
sS'position0'
p985
(lp986
I750
aI930
asS'shotdownTime'
p987
S'2023-01-19 10:57:31'
p988
sS'ydir'
p989
I1
sS'xdir'
p990
I-1
sS'speed'
p991
I0
sS'frameCount'
p992
I79
sS'id'
p993
I9
sS'position'
p994
(lp995
I900
aI700
asS'player'
p996
I2
sba(igameObject
GameObject
p997
(dp998
S'img'
p999
NsS'threwtime'
p1000
S'2023-01-19 10:57:31'
p1001
sS'Rotate'
p1002
I0
sS'speedY'
p1003
I0
sS'speedX'
p1004
I1
sS'position0'
p1005
(lp1006
I250
aI930
asS'shotdownTime'
p1007
S'2023-01-19 10:57:34'
p1008
sS'ydir'
p1009
I1
sS'xdir'
p1010
I1
sS'speed'
p1011
I0
sS'frameCount'
p1012
I162
sS'id'
p1013
I4
sS'position'
p1014
(lp1015
I860
aI700
asS'player'
p1016
I1
sba(igameObject
GameObject
p1017
(dp1018
S'img'
p1019
NsS'threwtime'
p1020
S'2023-01-19 10:57:34'
p1021
sS'Rotate'
p1022
I0
sS'speedY'
p1023
I0
sS'speedX'
p1024
I1
sS'position0'
p1025
(lp1026
I250
aI930
asS'shotdownTime'
p1027
S'2023-01-19 10:57:36'
p1028
sS'ydir'
p1029
I1
sS'xdir'
p1030
I1
sS'speed'
p1031
I0
sS'frameCount'
p1032
I161
sS'id'
p1033
I3
sS'position'
p1034
(lp1035
I820
aI700
asS'player'
p1036
I1
sbasaa(lp1037
Vmark
p1038
aS'Computer'
p1039
a(dp1040
I1
(lp1041
(igameObject
GameObject
p1042
(dp1043
S'img'
p1044
NsS'threwtime'
p1045
S'2023-01-19 11:02:09'
p1046
sS'Rotate'
p1047
I0
sS'speedY'
p1048
I0
sS'speedX'
p1049
I1
sS'position0'
p1050
(lp1051
I250
aI930
asS'shotdownTime'
p1052
S'2023-01-19 11:02:10'
p1053
sS'ydir'
p1054
I1
sS'xdir'
p1055
I1
sS'speed'
p1056
I0
sS'frameCount'
p1057
I73
sS'id'
p1058
I5
sS'position'
p1059
(lp1060
I20
aI700
asS'player'
p1061
I1
sba(igameObject
GameObject
p1062
(dp1063
S'img'
p1064
NsS'threwtime'
p1065
S'2023-01-19 11:02:11'
p1066
sS'Rotate'
p1067
I0
sS'speedY'
p1068
I0
sS'speedX'
p1069
I1
sS'position0'
p1070
(lp1071
I250
aI930
asS'shotdownTime'
p1072
S'2023-01-19 11:02:12'
p1073
sS'ydir'
p1074
I1
sS'xdir'
p1075
I1
sS'speed'
p1076
I0
sS'frameCount'
p1077
I73
sS'id'
p1078
I4
sS'position'
p1079
(lp1080
I60
aI700
asS'player'
p1081
I1
sba(igameObject
GameObject
p1082
(dp1083
S'img'
p1084
NsS'threwtime'
p1085
S'2023-01-19 11:02:14'
p1086
sS'Rotate'
p1087
I0
sS'speedY'
p1088
I0
sS'speedX'
p1089
I1
sS'position0'
p1090
(lp1091
I250
aI930
asS'shotdownTime'
p1092
S'2023-01-19 11:02:15'
p1093
sS'ydir'
p1094
I1
sS'xdir'
p1095
I1
sS'speed'
p1096
I0
sS'frameCount'
p1097
I68
sS'id'
p1098
I3
sS'position'
p1099
(lp1100
I100
aI700
asS'player'
p1101
I1
sba(igameObject
GameObject
p1102
(dp1103
S'img'
p1104
NsS'threwtime'
p1105
S'2023-01-19 11:02:16'
p1106
sS'Rotate'
p1107
I0
sS'speedY'
p1108
I0
sS'speedX'
p1109
I1
sS'position0'
p1110
(lp1111
I250
aI930
asS'shotdownTime'
p1112
S'2023-01-19 11:02:18'
p1113
sS'ydir'
p1114
I1
sS'xdir'
p1115
I1
sS'speed'
p1116
I0
sS'frameCount'
p1117
I77
sS'id'
p1118
I2
sS'position'
p1119
(lp1120
I140
aI700
asS'player'
p1121
I1
sbasI2
(lp1122
(igameObject
GameObject
p1123
(dp1124
S'img'
p1125
NsS'threwtime'
p1126
S'2023-01-19 11:02:10'
p1127
sS'Rotate'
p1128
I0
sS'speedY'
p1129
I0
sS'speedX'
p1130
I1
sS'position0'
p1131
(lp1132
I750
aI930
asS'shotdownTime'
p1133
S'2023-01-19 11:02:11'
p1134
sS'ydir'
p1135
I1
sS'xdir'
p1136
I-1
sS'speed'
p1137
I0
sS'frameCount'
p1138
I79
sS'id'
p1139
I10
sS'position'
p1140
(lp1141
I980
aI700
asS'player'
p1142
I2
sba(igameObject
GameObject
p1143
(dp1144
S'img'
p1145
NsS'threwtime'
p1146
S'2023-01-19 11:02:12'
p1147
sS'Rotate'
p1148
I0
sS'speedY'
p1149
I0
sS'speedX'
p1150
I1
sS'position0'
p1151
(lp1152
I750
aI930
asS'shotdownTime'
p1153
S'2023-01-19 11:02:14'
p1154
sS'ydir'
p1155
I1
sS'xdir'
p1156
I-1
sS'speed'
p1157
I0
sS'frameCount'
p1158
I79
sS'id'
p1159
I9
sS'position'
p1160
(lp1161
I940
aI700
asS'player'
p1162
I2
sba(igameObject
GameObject
p1163
(dp1164
S'img'
p1165
NsS'threwtime'
p1166
S'2023-01-19 11:02:15'
p1167
sS'Rotate'
p1168
I0
sS'speedY'
p1169
I0
sS'speedX'
p1170
I1
sS'position0'
p1171
(lp1172
I750
aI930
asS'shotdownTime'
p1173
S'2023-01-19 11:02:16'
p1174
sS'ydir'
p1175
I1
sS'xdir'
p1176
I-1
sS'speed'
p1177
I0
sS'frameCount'
p1178
I79
sS'id'
p1179
I8
sS'position'
p1180
(lp1181
I900
aI700
asS'player'
p1182
I2
sba(igameObject
GameObject
p1183
(dp1184
S'img'
p1185
NsS'threwtime'
p1186
S'2023-01-19 11:02:18'
p1187
sS'Rotate'
p1188
I0
sS'speedY'
p1189
I0
sS'speedX'
p1190
I1
sS'position0'
p1191
(lp1192
I750
aI930
asS'shotdownTime'
p1193
S'2023-01-19 11:02:19'
p1194
sS'ydir'
p1195
I1
sS'xdir'
p1196
I-1
sS'speed'
p1197
I0
sS'frameCount'
p1198
I79
sS'id'
p1199
I7
sS'position'
p1200
(lp1201
I860
aI700
asS'player'
p1202
I2
sba(igameObject
GameObject
p1203
(dp1204
S'img'
p1205
NsS'threwtime'
p1206
S'2023-01-19 11:02:19'
p1207
sS'Rotate'
p1208
I0
sS'speedY'
p1209
I0
sS'speedX'
p1210
I1
sS'position0'
p1211
(lp1212
I250
aI930
asS'shotdownTime'
p1213
S'2023-01-19 11:02:22'
p1214
sS'ydir'
p1215
I1
sS'xdir'
p1216
I1
sS'speed'
p1217
I0
sS'frameCount'
p1218
I162
sS'id'
p1219
I1
sS'position'
p1220
(lp1221
I820
aI700
asS'player'
p1222
I1
sbasaa(lp1223
Vmark
p1224
aS'Computer'
p1225
a(dp1226
I1
(lp1227
(igameObject
GameObject
p1228
(dp1229
S'img'
p1230
NsS'threwtime'
p1231
S'2023-01-19 11:17:51'
p1232
sS'Rotate'
p1233
I0
sS'speedY'
p1234
I0
sS'speedX'
p1235
I1
sS'position0'
p1236
(lp1237
I250
aI930
asS'shotdownTime'
p1238
S'2023-01-19 11:17:52'
p1239
sS'ydir'
p1240
I1
sS'xdir'
p1241
I1
sS'speed'
p1242
I0
sS'frameCount'
p1243
I26
sS'id'
p1244
I4
sS'position'
p1245
(lp1246
I20
aI700
asS'player'
p1247
I1
sba(igameObject
GameObject
p1248
(dp1249
S'img'
p1250
NsS'threwtime'
p1251
S'2023-01-19 11:17:53'
p1252
sS'Rotate'
p1253
I0
sS'speedY'
p1254
I0
sS'speedX'
p1255
I1
sS'position0'
p1256
(lp1257
I250
aI930
asS'shotdownTime'
p1258
S'2023-01-19 11:17:53'
p1259
sS'ydir'
p1260
I1
sS'xdir'
p1261
I1
sS'speed'
p1262
I0
sS'frameCount'
p1263
I30
sS'id'
p1264
I3
sS'position'
p1265
(lp1266
I60
aI700
asS'player'
p1267
I1
sbasI2
(lp1268
(igameObject
GameObject
p1269
(dp1270
S'img'
p1271
NsS'threwtime'
p1272
S'2023-01-19 11:17:46'
p1273
sS'Rotate'
p1274
I0
sS'speedY'
p1275
I0
sS'speedX'
p1276
I1
sS'position0'
p1277
(lp1278
I250
aI930
asS'shotdownTime'
p1279
S'2023-01-19 11:17:48'
p1280
sS'ydir'
p1281
I1
sS'xdir'
p1282
I1
sS'speed'
p1283
I0
sS'frameCount'
p1284
I161
sS'id'
p1285
I5
sS'position'
p1286
(lp1287
I980
aI700
asS'player'
p1288
I1
sba(igameObject
GameObject
p1289
(dp1290
S'img'
p1291
NsS'threwtime'
p1292
S'2023-01-19 11:17:48'
p1293
sS'Rotate'
p1294
I0
sS'speedY'
p1295
I0
sS'speedX'
p1296
I1
sS'position0'
p1297
(lp1298
I750
aI930
asS'shotdownTime'
p1299
S'2023-01-19 11:17:50'
p1300
sS'ydir'
p1301
I1
sS'xdir'
p1302
I-1
sS'speed'
p1303
I0
sS'frameCount'
p1304
I78
sS'id'
p1305
I10
sS'position'
p1306
(lp1307
I940
aI700
asS'player'
p1308
I2
sba(igameObject
GameObject
p1309
(dp1310
S'img'
p1311
NsS'threwtime'
p1312
S'2023-01-19 11:17:50'
p1313
sS'Rotate'
p1314
I0
sS'speedY'
p1315
I0
sS'speedX'
p1316
I1
sS'position0'
p1317
(lp1318
I750
aI930
asS'shotdownTime'
p1319
S'2023-01-19 11:17:51'
p1320
sS'ydir'
p1321
I1
sS'xdir'
p1322
I-1
sS'speed'
p1323
I0
sS'frameCount'
p1324
I79
sS'id'
p1325
I9
sS'position'
p1326
(lp1327
I900
aI700
asS'player'
p1328
I2
sba(igameObject
GameObject
p1329
(dp1330
S'img'
p1331
NsS'threwtime'
p1332
S'2023-01-19 11:17:52'
p1333
sS'Rotate'
p1334
I0
sS'speedY'
p1335
I0
sS'speedX'
p1336
I1
sS'position0'
p1337
(lp1338
I750
aI930
asS'shotdownTime'
p1339
S'2023-01-19 11:17:53'
p1340
sS'ydir'
p1341
I1
sS'xdir'
p1342
I-1
sS'speed'
p1343
I0
sS'frameCount'
p1344
I79
sS'id'
p1345
I8
sS'position'
p1346
(lp1347
I860
aI700
asS'player'
p1348
I2
sba(igameObject
GameObject
p1349
(dp1350
S'img'
p1351
NsS'threwtime'
p1352
S'2023-01-19 11:17:53'
p1353
sS'Rotate'
p1354
I0
sS'speedY'
p1355
I0
sS'speedX'
p1356
I1
sS'position0'
p1357
(lp1358
I750
aI930
asS'shotdownTime'
p1359
S'2023-01-19 11:17:55'
p1360
sS'ydir'
p1361
I1
sS'xdir'
p1362
I-1
sS'speed'
p1363
I0
sS'frameCount'
p1364
I79
sS'id'
p1365
I7
sS'position'
p1366
(lp1367
I820
aI700
asS'player'
p1368
I2
sbasaa(lp1369
Vmark
p1370
aS'Computer'
p1371
a(dp1372
I1
(lp1373
(igameObject
GameObject
p1374
(dp1375
S'img'
p1376
NsS'threwtime'
p1377
S'2023-01-19 11:18:32'
p1378
sS'Rotate'
p1379
I0
sS'speedY'
p1380
I0
sS'speedX'
p1381
I1
sS'position0'
p1382
(lp1383
I250
aI930
asS'shotdownTime'
p1384
S'2023-01-19 11:18:33'
p1385
sS'ydir'
p1386
I1
sS'xdir'
p1387
I1
sS'speed'
p1388
I0
sS'frameCount'
p1389
I74
sS'id'
p1390
I3
sS'position'
p1391
(lp1392
I20
aI700
asS'player'
p1393
I1
sba(igameObject
GameObject
p1394
(dp1395
S'img'
p1396
NsS'threwtime'
p1397
S'2023-01-19 11:18:34'
p1398
sS'Rotate'
p1399
I0
sS'speedY'
p1400
I0
sS'speedX'
p1401
I1
sS'position0'
p1402
(lp1403
I750
aI930
asS'shotdownTime'
p1404
S'2023-01-19 11:18:43'
p1405
sS'ydir'
p1406
I1
sS'xdir'
p1407
I-1
sS'speed'
p1408
I0
sS'frameCount'
p1409
I518
sS'id'
p1410
I7
sS'position'
p1411
(lp1412
I60
aI700
asS'player'
p1413
I2
sbasI2
(lp1414
(igameObject
GameObject
p1415
(dp1416
S'img'
p1417
NsS'threwtime'
p1418
S'2023-01-19 11:18:23'
p1419
sS'Rotate'
p1420
I0
sS'speedY'
p1421
I0
sS'speedX'
p1422
I1
sS'position0'
p1423
(lp1424
I250
aI930
asS'shotdownTime'
p1425
S'2023-01-19 11:18:26'
p1426
sS'ydir'
p1427
I1
sS'xdir'
p1428
I1
sS'speed'
p1429
I0
sS'frameCount'
p1430
I162
sS'id'
p1431
I5
sS'position'
p1432
(lp1433
I980
aI700
asS'player'
p1434
I1
sba(igameObject
GameObject
p1435
(dp1436
S'img'
p1437
NsS'threwtime'
p1438
S'2023-01-19 11:18:26'
p1439
sS'Rotate'
p1440
I0
sS'speedY'
p1441
I0
sS'speedX'
p1442
I1
sS'position0'
p1443
(lp1444
I750
aI930
asS'shotdownTime'
p1445
S'2023-01-19 11:18:28'
p1446
sS'ydir'
p1447
I1
sS'xdir'
p1448
I-1
sS'speed'
p1449
I0
sS'frameCount'
p1450
I78
sS'id'
p1451
I10
sS'position'
p1452
(lp1453
I940
aI700
asS'player'
p1454
I2
sba(igameObject
GameObject
p1455
(dp1456
S'img'
p1457
NsS'threwtime'
p1458
S'2023-01-19 11:18:28'
p1459
sS'Rotate'
p1460
I0
sS'speedY'
p1461
I0
sS'speedX'
p1462
I1
sS'position0'
p1463
(lp1464
I750
aI930
asS'shotdownTime'
p1465
S'2023-01-19 11:18:29'
p1466
sS'ydir'
p1467
I1
sS'xdir'
p1468
I-1
sS'speed'
p1469
I0
sS'frameCount'
p1470
I79
sS'id'
p1471
I9
sS'position'
p1472
(lp1473
I900
aI700
asS'player'
p1474
I2
sba(igameObject
GameObject
p1475
(dp1476
S'img'
p1477
NsS'threwtime'
p1478
S'2023-01-19 11:18:29'
p1479
sS'Rotate'
p1480
I0
sS'speedY'
p1481
I0
sS'speedX'
p1482
I1
sS'position0'
p1483
(lp1484
I250
aI930
asS'shotdownTime'
p1485
S'2023-01-19 11:18:32'
p1486
sS'ydir'
p1487
I1
sS'xdir'
p1488
I1
sS'speed'
p1489
I0
sS'frameCount'
p1490
I161
sS'id'
p1491
I4
sS'position'
p1492
(lp1493
I860
aI700
asS'player'
p1494
I1
sba(igameObject
GameObject
p1495
(dp1496
S'img'
p1497
NsS'threwtime'
p1498
S'2023-01-19 11:18:33'
p1499
sS'Rotate'
p1500
I0
sS'speedY'
p1501
I0
sS'speedX'
p1502
I1
sS'position0'
p1503
(lp1504
I750
aI930
asS'shotdownTime'
p1505
S'2023-01-19 11:18:34'
p1506
sS'ydir'
p1507
I1
sS'xdir'
p1508
I-1
sS'speed'
p1509
I0
sS'frameCount'
p1510
I78
sS'id'
p1511
I8
sS'position'
p1512
(lp1513
I820
aI700
asS'player'
p1514
I2
sbasaa(lp1515
Vmstk
p1516
aS'Computer'
p1517
a(dp1518
I1
(lp1519
(igameObject
GameObject
p1520
(dp1521
S'img'
p1522
NsS'threwtime'
p1523
S'2023-01-19 11:21:31'
p1524
sS'Rotate'
p1525
I0
sS'speedY'
p1526
I0
sS'speedX'
p1527
I1
sS'position0'
p1528
(lp1529
I250
aI930
asS'shotdownTime'
p1530
S'2023-01-19 11:21:33'
p1531
sS'ydir'
p1532
I1
sS'xdir'
p1533
I1
sS'speed'
p1534
I0
sS'frameCount'
p1535
I89
sS'id'
p1536
I5
sS'position'
p1537
(lp1538
I20
aI700
asS'player'
p1539
I1
sba(igameObject
GameObject
p1540
(dp1541
S'img'
p1542
NsS'threwtime'
p1543
S'2023-01-19 11:21:34'
p1544
sS'Rotate'
p1545
I0
sS'speedY'
p1546
I0
sS'speedX'
p1547
I1
sS'position0'
p1548
(lp1549
I250
aI930
asS'shotdownTime'
p1550
S'2023-01-19 11:21:36'
p1551
sS'ydir'
p1552
I1
sS'xdir'
p1553
I1
sS'speed'
p1554
I0
sS'frameCount'
p1555
I89
sS'id'
p1556
I4
sS'position'
p1557
(lp1558
I60
aI700
asS'player'
p1559
I1
sba(igameObject
GameObject
p1560
(dp1561
S'img'
p1562
NsS'threwtime'
p1563
S'2023-01-19 11:21:38'
p1564
sS'Rotate'
p1565
I0
sS'speedY'
p1566
I0
sS'speedX'
p1567
I1
sS'position0'
p1568
(lp1569
I250
aI930
asS'shotdownTime'
p1570
S'2023-01-19 11:21:40'
p1571
sS'ydir'
p1572
I1
sS'xdir'
p1573
I1
sS'speed'
p1574
I0
sS'frameCount'
p1575
I82
sS'id'
p1576
I3
sS'position'
p1577
(lp1578
I100
aI700
asS'player'
p1579
I1
sba(igameObject
GameObject
p1580
(dp1581
S'img'
p1582
NsS'threwtime'
p1583
S'2023-01-19 11:21:41'
p1584
sS'Rotate'
p1585
I0
sS'speedY'
p1586
I0
sS'speedX'
p1587
I1
sS'position0'
p1588
(lp1589
I250
aI930
asS'shotdownTime'
p1590
S'2023-01-19 11:21:43'
p1591
sS'ydir'
p1592
I1
sS'xdir'
p1593
I1
sS'speed'
p1594
I0
sS'frameCount'
p1595
I87
sS'id'
p1596
I2
sS'position'
p1597
(lp1598
I140
aI700
asS'player'
p1599
I1
sba(igameObject
GameObject
p1600
(dp1601
S'img'
p1602
NsS'threwtime'
p1603
S'2023-01-19 11:21:43'
p1604
sS'Rotate'
p1605
I0
sS'speedY'
p1606
I0
sS'speedX'
p1607
I1
sS'position0'
p1608
(lp1609
I250
aI930
asS'shotdownTime'
p1610
S'2023-01-19 11:21:44'
p1611
sS'ydir'
p1612
I1
sS'xdir'
p1613
I1
sS'speed'
p1614
I0
sS'frameCount'
p1615
I86
sS'id'
p1616
I1
sS'position'
p1617
(lp1618
I180
aI700
asS'player'
p1619
I1
sbasI2
(lp1620
(igameObject
GameObject
p1621
(dp1622
S'img'
p1623
NsS'threwtime'
p1624
S'2023-01-19 11:21:33'
p1625
sS'Rotate'
p1626
I0
sS'speedY'
p1627
I0
sS'speedX'
p1628
I1
sS'position0'
p1629
(lp1630
I750
aI930
asS'shotdownTime'
p1631
S'2023-01-19 11:21:34'
p1632
sS'ydir'
p1633
I1
sS'xdir'
p1634
I-1
sS'speed'
p1635
I0
sS'frameCount'
p1636
I79
sS'id'
p1637
I10
sS'position'
p1638
(lp1639
I980
aI700
asS'player'
p1640
I2
sba(igameObject
GameObject
p1641
(dp1642
S'img'
p1643
NsS'threwtime'
p1644
S'2023-01-19 11:21:36'
p1645
sS'Rotate'
p1646
I0
sS'speedY'
p1647
I0
sS'speedX'
p1648
I1
sS'position0'
p1649
(lp1650
I750
aI930
asS'shotdownTime'
p1651
S'2023-01-19 11:21:37'
p1652
sS'ydir'
p1653
I1
sS'xdir'
p1654
I-1
sS'speed'
p1655
I0
sS'frameCount'
p1656
I78
sS'id'
p1657
I9
sS'position'
p1658
(lp1659
I940
aI700
asS'player'
p1660
I2
sba(igameObject
GameObject
p1661
(dp1662
S'img'
p1663
NsS'threwtime'
p1664
S'2023-01-19 11:21:37'
p1665
sS'Rotate'
p1666
I0
sS'speedY'
p1667
I0
sS'speedX'
p1668
I1
sS'position0'
p1669
(lp1670
I750
aI930
asS'shotdownTime'
p1671
S'2023-01-19 11:21:38'
p1672
sS'ydir'
p1673
I1
sS'xdir'
p1674
I-1
sS'speed'
p1675
I0
sS'frameCount'
p1676
I79
sS'id'
p1677
I8
sS'position'
p1678
(lp1679
I900
aI700
asS'player'
p1680
I2
sba(igameObject
GameObject
p1681
(dp1682
S'img'
p1683
NsS'threwtime'
p1684
S'2023-01-19 11:21:40'
p1685
sS'Rotate'
p1686
I0
sS'speedY'
p1687
I0
sS'speedX'
p1688
I1
sS'position0'
p1689
(lp1690
I750
aI930
asS'shotdownTime'
p1691
S'2023-01-19 11:21:41'
p1692
sS'ydir'
p1693
I1
sS'xdir'
p1694
I-1
sS'speed'
p1695
I0
sS'frameCount'
p1696
I79
sS'id'
p1697
I7
sS'position'
p1698
(lp1699
I860
aI700
asS'player'
p1700
I2
sba(igameObject
GameObject
p1701
(dp1702
S'img'
p1703
NsS'threwtime'
p1704
S'2023-01-19 11:21:44'
p1705
sS'Rotate'
p1706
I0
sS'speedY'
p1707
I0
sS'speedX'
p1708
I1
sS'position0'
p1709
(lp1710
I750
aI930
asS'shotdownTime'
p1711
S'2023-01-19 11:21:45'
p1712
sS'ydir'
p1713
I1
sS'xdir'
p1714
I-1
sS'speed'
p1715
I0
sS'frameCount'
p1716
I79
sS'id'
p1717
I6
sS'position'
p1718
(lp1719
I820
aI700
asS'player'
p1720
I2
sbasaa(lp1721
Vmark
p1722
aS'Computer'
p1723
a(dp1724
I1
(lp1725
(igameObject
GameObject
p1726
(dp1727
S'img'
p1728
NsS'threwtime'
p1729
S'2023-01-19 11:25:24'
p1730
sS'Rotate'
p1731
I0
sS'speedY'
p1732
I0
sS'speedX'
p1733
I1
sS'position0'
p1734
(lp1735
I250
aI930
asS'shotdownTime'
p1736
S'2023-01-19 11:25:25'
p1737
sS'ydir'
p1738
I1
sS'xdir'
p1739
I1
sS'speed'
p1740
I0
sS'frameCount'
p1741
I40
sS'id'
p1742
I5
sS'position'
p1743
(lp1744
I20
aI700
asS'player'
p1745
I1
sbasI2
(lp1746
(igameObject
GameObject
p1747
(dp1748
S'img'
p1749
NsS'threwtime'
p1750
S'2023-01-19 11:25:25'
p1751
sS'Rotate'
p1752
I0
sS'speedY'
p1753
I0
sS'speedX'
p1754
I1
sS'position0'
p1755
(lp1756
I750
aI930
asS'shotdownTime'
p1757
S'2023-01-19 11:25:26'
p1758
sS'ydir'
p1759
I1
sS'xdir'
p1760
I-1
sS'speed'
p1761
I0
sS'frameCount'
p1762
I79
sS'id'
p1763
I10
sS'position'
p1764
(lp1765
I980
aI700
asS'player'
p1766
I2
sba(igameObject
GameObject
p1767
(dp1768
S'img'
p1769
NsS'threwtime'
p1770
S'2023-01-19 11:25:26'
p1771
sS'Rotate'
p1772
I0
sS'speedY'
p1773
I0
sS'speedX'
p1774
I1
sS'position0'
p1775
(lp1776
I250
aI930
asS'shotdownTime'
p1777
S'2023-01-19 11:25:29'
p1778
sS'ydir'
p1779
I1
sS'xdir'
p1780
I1
sS'speed'
p1781
I0
sS'frameCount'
p1782
I161
sS'id'
p1783
I4
sS'position'
p1784
(lp1785
I940
aI700
asS'player'
p1786
I1
sba(igameObject
GameObject
p1787
(dp1788
S'img'
p1789
NsS'threwtime'
p1790
S'2023-01-19 11:25:29'
p1791
sS'Rotate'
p1792
I0
sS'speedY'
p1793
I0
sS'speedX'
p1794
I1
sS'position0'
p1795
(lp1796
I750
aI930
asS'shotdownTime'
p1797
S'2023-01-19 11:25:30'
p1798
sS'ydir'
p1799
I1
sS'xdir'
p1800
I-1
sS'speed'
p1801
I0
sS'frameCount'
p1802
I79
sS'id'
p1803
I9
sS'position'
p1804
(lp1805
I900
aI700
asS'player'
p1806
I2
sba(igameObject
GameObject
p1807
(dp1808
S'img'
p1809
NsS'threwtime'
p1810
S'2023-01-19 11:25:30'
p1811
sS'Rotate'
p1812
I0
sS'speedY'
p1813
I0
sS'speedX'
p1814
I1
sS'position0'
p1815
(lp1816
I250
aI930
asS'shotdownTime'
p1817
S'2023-01-19 11:25:33'
p1818
sS'ydir'
p1819
I1
sS'xdir'
p1820
I1
sS'speed'
p1821
I0
sS'frameCount'
p1822
I161
sS'id'
p1823
I3
sS'position'
p1824
(lp1825
I860
aI700
asS'player'
p1826
I1
sba(igameObject
GameObject
p1827
(dp1828
S'img'
p1829
NsS'threwtime'
p1830
S'2023-01-19 11:25:33'
p1831
sS'Rotate'
p1832
I0
sS'speedY'
p1833
I0
sS'speedX'
p1834
I1
sS'position0'
p1835
(lp1836
I750
aI930
asS'shotdownTime'
p1837
S'2023-01-19 11:25:34'
p1838
sS'ydir'
p1839
I1
sS'xdir'
p1840
I-1
sS'speed'
p1841
I0
sS'frameCount'
p1842
I79
sS'id'
p1843
I8
sS'position'
p1844
(lp1845
I820
aI700
asS'player'
p1846
I2
sbasaas.